target datalayout = "e-m:e-p270:32:32-p271:32:32-p272:64:64-i64:64-i128:128-f80:128-n8:16:32:64-S128"
target triple = "x86_64-pc-linux-gnu"

%struct.object_id = type { [32 x i8], i32 }
%struct.unpack_trees_options = type { i32, i32, i32, i32, i32, i32, i32, i32, i32, i32, i32, i32, i32, i32, i32, i32, i32, ptr, ptr, ptr, ptr, i32, ptr, ptr, ptr, ptr, %struct.checkout_metadata, %struct.unpack_trees_options_internal }
%struct.checkout_metadata = type { ptr, %struct.object_id, %struct.object_id }
%struct.unpack_trees_options_internal = type { i32, i32, i32, i32, i32, [12 x ptr], %struct.strvec, [12 x %struct.string_list], %struct.index_state, ptr, ptr }
%struct.strvec = type { ptr, i64, i64 }
%struct.string_list = type { ptr, i64, i64, i8, ptr }
%struct.index_state = type { ptr, i32, i32, i32, i32, ptr, ptr, ptr, %struct.cache_time, i8, i32, %struct.hashmap, %struct.hashmap, %struct.object_id, ptr, ptr, ptr, ptr, ptr, ptr, ptr }
%struct.cache_time = type { i32, i32 }
%struct.hashmap = type { ptr, ptr, ptr, i32, i32, i32, i32, i8 }
%struct.cache_entry = type { %struct.hashmap_entry, %struct.stat_data, i32, i32, i32, i32, i32, %struct.object_id, [0 x i8] }
%struct.hashmap_entry = type { ptr, i32 }
%struct.stat_data = type { %struct.cache_time, %struct.cache_time, i32, i32, i32, i32, i32 }

@.str.58 = private unnamed_addr constant [16 x i8] c"* %d-way merge\0A\00", align 1
@.str.59 = private unnamed_addr constant [6 x i8] c"index\00", align 1
@.str.60 = private unnamed_addr constant [7 x i8] c"ent#%d\00", align 1
@.str.61 = private unnamed_addr constant [4 x i8] c"%s \00", align 1
@.str.62 = private unnamed_addr constant [11 x i8] c"(missing)\0A\00", align 1
@.str.63 = private unnamed_addr constant [12 x i8] c"(conflict)\0A\00", align 1
@.str.64 = private unnamed_addr constant [18 x i8] c"%06o #%d %s %.8s\0A\00", align 1

; Function Attrs: nounwind uwtable
define internal void @debug_stage(ptr noundef %0, ptr noundef %1, ptr noundef %2) #0 {
  %4 = alloca ptr, align 8
  %5 = alloca ptr, align 8
  %6 = alloca ptr, align 8
  store ptr %0, ptr %4, align 8, !tbaa !11
  store ptr %1, ptr %5, align 8, !tbaa !102
  store ptr %2, ptr %6, align 8, !tbaa !93
  %7 = load ptr, ptr %4, align 8, !tbaa !11
  %8 = call i32 (ptr, ...) @printf(ptr noundef @.str.61, ptr noundef %7)
  %9 = load ptr, ptr %5, align 8, !tbaa !102
  %10 = icmp ne ptr %9, null
  br i1 %10, label %13, label %11

11:                                               ; preds = %3
  %12 = call i32 (ptr, ...) @printf(ptr noundef @.str.62)
  br label %38

13:                                               ; preds = %3
  %14 = load ptr, ptr %5, align 8, !tbaa !102
  %15 = load ptr, ptr %6, align 8, !tbaa !93
  %16 = getelementptr inbounds nuw %struct.unpack_trees_options, ptr %15, i32 0, i32 22
  %17 = load ptr, ptr %16, align 8, !tbaa !104
  %18 = icmp eq ptr %14, %17
  br i1 %18, label %19, label %21

19:                                               ; preds = %13
  %20 = call i32 (ptr, ...) @printf(ptr noundef @.str.63)
  br label %37

21:                                               ; preds = %13
  %22 = load ptr, ptr %5, align 8, !tbaa !102
  %23 = getelementptr inbounds nuw %struct.cache_entry, ptr %22, i32 0, i32 2
  %24 = load i32, ptr %23, align 4, !tbaa !4
  %25 = load ptr, ptr %5, align 8, !tbaa !102
  %26 = getelementptr inbounds nuw %struct.cache_entry, ptr %25, i32 0, i32 3
  %27 = load i32, ptr %26, align 8, !tbaa !4
  %28 = and i32 12288, %27
  %29 = lshr i32 %28, 12
  %30 = load ptr, ptr %5, align 8, !tbaa !102
  %31 = getelementptr inbounds nuw %struct.cache_entry, ptr %30, i32 0, i32 8
  %32 = getelementptr inbounds [0 x i8], ptr %31, i64 0, i64 0
  %33 = load ptr, ptr %5, align 8, !tbaa !102
  %34 = getelementptr inbounds nuw %struct.cache_entry, ptr %33, i32 0, i32 7
  %35 = call ptr @oid_to_hex(ptr noundef %34)
  %36 = call i32 (ptr, ...) @printf(ptr noundef @.str.64, i32 noundef %24, i32 noundef %29, ptr noundef %32, ptr noundef %35)
  br label %37

37:                                               ; preds = %21, %19
  br label %38

38:                                               ; preds = %37, %11
  ret void
}

; Function Attrs: nounwind uwtable
define internal i32 @debug_merge(ptr noundef %0, ptr noundef %1) #0 {
  %3 = alloca ptr, align 8
  %4 = alloca ptr, align 8
  %5 = alloca i32, align 4
  %6 = alloca [24 x i8], align 16
  store ptr %0, ptr %3, align 8, !tbaa !100
  store ptr %1, ptr %4, align 8, !tbaa !93
  call void @llvm.lifetime.start.p0(i64 4, ptr %5) #8
  %7 = load ptr, ptr %4, align 8, !tbaa !93
  %8 = getelementptr inbounds nuw %struct.unpack_trees_options, ptr %7, i32 0, i32 27
  %9 = getelementptr inbounds nuw %struct.unpack_trees_options_internal, ptr %8, i32 0, i32 3
  %10 = load i32, ptr %9, align 4, !tbaa !101
  %11 = call i32 (ptr, ...) @printf(ptr noundef @.str.58, i32 noundef %10)
  %12 = load ptr, ptr %3, align 8, !tbaa !100
  %13 = getelementptr inbounds ptr, ptr %12, i64 0
  %14 = load ptr, ptr %13, align 8, !tbaa !102
  %15 = load ptr, ptr %4, align 8, !tbaa !93
  call void @debug_stage(ptr noundef @.str.59, ptr noundef %14, ptr noundef %15)
  store i32 1, ptr %5, align 4, !tbaa !4
  br label %16

16:                                               ; preds = %34, %2
  %17 = load i32, ptr %5, align 4, !tbaa !4
  %18 = load ptr, ptr %4, align 8, !tbaa !93
  %19 = getelementptr inbounds nuw %struct.unpack_trees_options, ptr %18, i32 0, i32 27
  %20 = getelementptr inbounds nuw %struct.unpack_trees_options_internal, ptr %19, i32 0, i32 3
  %21 = load i32, ptr %20, align 4, !tbaa !101
  %22 = icmp sle i32 %17, %21
  br i1 %22, label %23, label %37

23:                                               ; preds = %16
  call void @llvm.lifetime.start.p0(i64 24, ptr %6) #8
  %24 = getelementptr inbounds [24 x i8], ptr %6, i64 0, i64 0
  %25 = load i32, ptr %5, align 4, !tbaa !4
  %26 = call i32 (ptr, i64, ptr, ...) @xsnprintf(ptr noundef %24, i64 noundef 24, ptr noundef @.str.60, i32 noundef %25)
  %27 = getelementptr inbounds [24 x i8], ptr %6, i64 0, i64 0
  %28 = load ptr, ptr %3, align 8, !tbaa !100
  %29 = load i32, ptr %5, align 4, !tbaa !4
  %30 = sext i32 %29 to i64
  %31 = getelementptr inbounds ptr, ptr %28, i64 %30
  %32 = load ptr, ptr %31, align 8, !tbaa !102
  %33 = load ptr, ptr %4, align 8, !tbaa !93
  call void @debug_stage(ptr noundef %27, ptr noundef %32, ptr noundef %33)
  call void @llvm.lifetime.end.p0(i64 24, ptr %6) #8
  br label %34

34:                                               ; preds = %23
  %35 = load i32, ptr %5, align 4, !tbaa !4
  %36 = add nsw i32 %35, 1
  store i32 %36, ptr %5, align 4, !tbaa !4
  br label %16, !llvm.loop !103

37:                                               ; preds = %16
  call void @llvm.lifetime.end.p0(i64 4, ptr %5) #8
  ret i32 0
}