; Function Attrs: nounwind uwtable
define internal noundef i32 @debug_merge(ptr noundef readonly captures(none) %0, ptr noundef readonly captures(none) %1) #0 {
  %3 = alloca [24 x i8], align 16
  %4 = getelementptr inbounds nuw i8, ptr %1, i64 236
  %5 = load i32, ptr %4, align 4, !tbaa !86
  %6 = tail call i32 (ptr, ...) @printf(ptr noundef nonnull dereferenceable(1) @.str.58, i32 noundef %5)
  %7 = load ptr, ptr %0, align 8, !tbaa !87
  %8 = tail call i32 (ptr, ...) @printf(ptr noundef nonnull dereferenceable(1) @.str.61, ptr noundef nonnull @.str.59)
  %.not.i = icmp eq ptr %7, null
  br i1 %.not.i, label %9, label %10

9:                                                ; preds = %2
  %puts.i = tail call i32 @puts(ptr nonnull dereferenceable(1) @str)
  br label %debug_stage.exit

10:                                               ; preds = %2
  %11 = getelementptr inbounds nuw i8, ptr %1, i64 112
  %12 = load ptr, ptr %11, align 8, !tbaa !88
  %13 = icmp eq ptr %7, %12
  br i1 %13, label %14, label %15

14:                                               ; preds = %10
  %puts8.i = tail call i32 @puts(ptr nonnull dereferenceable(1) @str.1)
  br label %debug_stage.exit

15:                                               ; preds = %10
  %16 = getelementptr inbounds nuw i8, ptr %7, i64 52
  %17 = load i32, ptr %16, align 4, !tbaa !67
  %18 = getelementptr inbounds nuw i8, ptr %7, i64 56
  %19 = load i32, ptr %18, align 8, !tbaa !67
  %20 = lshr i32 %19, 12
  %21 = and i32 %20, 3
  %22 = getelementptr inbounds nuw i8, ptr %7, i64 108
  %23 = getelementptr inbounds nuw i8, ptr %7, i64 72
  %24 = tail call ptr @oid_to_hex(ptr noundef nonnull %23) #11
  %25 = tail call i32 (ptr, ...) @printf(ptr noundef nonnull dereferenceable(1) @.str.64, i32 noundef %17, i32 noundef %21, ptr noundef nonnull %22, ptr noundef %24)
  br label %debug_stage.exit

debug_stage.exit:                                 ; preds = %9, %14, %15
  %26 = load i32, ptr %4, align 4, !tbaa !86
  %.not13 = icmp slt i32 %26, 1
  br i1 %.not13, label %._crit_edge, label %.lr.ph

.lr.ph:                                           ; preds = %debug_stage.exit
  %27 = getelementptr inbounds nuw i8, ptr %1, i64 112
  br label %28

28:                                               ; preds = %.lr.ph, %debug_stage.exit12
  %indvars.iv = phi i64 [ 1, %.lr.ph ], [ %indvars.iv.next, %debug_stage.exit12 ]
  call void @llvm.lifetime.start.p0(i64 24, ptr nonnull %3) #11
  %29 = trunc nuw nsw i64 %indvars.iv to i32
  %30 = call i32 (ptr, i64, ptr, ...) @xsnprintf(ptr noundef nonnull %3, i64 noundef 24, ptr noundef nonnull @.str.60, i32 noundef %29) #11
  %31 = getelementptr inbounds nuw ptr, ptr %0, i64 %indvars.iv
  %32 = load ptr, ptr %31, align 8, !tbaa !87
  %33 = call i32 (ptr, ...) @printf(ptr noundef nonnull dereferenceable(1) @.str.61, ptr noundef nonnull %3)
  %.not.i9 = icmp eq ptr %32, null
  br i1 %.not.i9, label %34, label %35

34:                                               ; preds = %28
  %puts.i11 = call i32 @puts(ptr nonnull dereferenceable(1) @str)
  br label %debug_stage.exit12

35:                                               ; preds = %28
  %36 = load ptr, ptr %27, align 8, !tbaa !88
  %37 = icmp eq ptr %32, %36
  br i1 %37, label %38, label %39

38:                                               ; preds = %35
  %puts8.i10 = call i32 @puts(ptr nonnull dereferenceable(1) @str.1)
  br label %debug_stage.exit12

39:                                               ; preds = %35
  %40 = getelementptr inbounds nuw i8, ptr %32, i64 52
  %41 = load i32, ptr %40, align 4, !tbaa !67
  %42 = getelementptr inbounds nuw i8, ptr %32, i64 56
  %43 = load i32, ptr %42, align 8, !tbaa !67
  %44 = lshr i32 %43, 12
  %45 = and i32 %44, 3
  %46 = getelementptr inbounds nuw i8, ptr %32, i64 108
  %47 = getelementptr inbounds nuw i8, ptr %32, i64 72
  %48 = call ptr @oid_to_hex(ptr noundef nonnull %47) #11
  %49 = call i32 (ptr, ...) @printf(ptr noundef nonnull dereferenceable(1) @.str.64, i32 noundef %41, i32 noundef %45, ptr noundef nonnull %46, ptr noundef %48)
  br label %debug_stage.exit12

debug_stage.exit12:                               ; preds = %34, %38, %39
  call void @llvm.lifetime.end.p0(i64 24, ptr nonnull %3) #11
  %indvars.iv.next = add nuw nsw i64 %indvars.iv, 1
  %50 = load i32, ptr %4, align 4, !tbaa !86
  %51 = sext i32 %50 to i64
  %.not.not = icmp slt i64 %indvars.iv, %51
  br i1 %.not.not, label %28, label %._crit_edge, !llvm.loop !89

._crit_edge:                                      ; preds = %debug_stage.exit12, %debug_stage.exit
  ret i32 0
}